target datalayout = "e-m:e-p270:32:32-p271:32:32-p272:64:64-i64:64-i128:128-f80:128-n8:16:32:64-S128"
target triple = "x86_64-unknown-linux-gnu"

%"class.smt::eq_justification" = type { ptr }
%class.symbol = type { ptr }
%class.svector = type { %class.vector.0 }
%class.vector.0 = type { ptr }
%class.ptr_vector = type { %class.vector }
%class.vector = type { ptr }
%"class.smt::theory" = type <{ ptr, i32, [4 x i8], ptr, ptr, %class.ptr_vector, %class.svector, i32, i8, [3 x i8] }>
%class.app = type { %class.expr, ptr, i32, [0 x ptr] }
%class.expr = type { %class.ast }
%class.ast = type { i32, i24, i32, i32 }
%class.decl = type { %class.ast, %class.symbol, ptr }
%class.decl_info = type <{ i32, i32, %class.vector.334, i8, [7 x i8] }>
%class.vector.334 = type { ptr }
%"class.smt::enode" = type { ptr, ptr, ptr, ptr, i32, i32, i32, i16, i32, i8, i8, %class.ptr_vector, %class.id_var_list, %"struct.smt::trans_justification", %class.approx_set, %class.approx_set, [0 x ptr] }
%class.id_var_list = type { i32, ptr }
%"struct.smt::trans_justification" = type { ptr, %"class.smt::eq_justification" }
%class.approx_set = type { %class.approx_set_tpl }
%class.approx_set_tpl = type { i64 }

; Function Attrs: mustprogress nounwind uwtable
define linkonce_odr hidden noundef zeroext i1 @_ZNK9decl_info10is_decl_ofEii(ptr noundef nonnull align 8 dereferenceable(17) %this, i32 noundef %fid, i32 noundef %k) #4 comdat align 2 {
entry:
  %this.addr = alloca ptr, align 8
  %fid.addr = alloca i32, align 4
  %k.addr = alloca i32, align 4
  store ptr %this, ptr %this.addr, align 8
  store i32 %fid, ptr %fid.addr, align 4
  store i32 %k, ptr %k.addr, align 4
  %this1 = load ptr, ptr %this.addr, align 8
  %m_family_id = getelementptr inbounds %class.decl_info, ptr %this1, i32 0, i32 0
  %0 = load i32, ptr %m_family_id, align 8
  %1 = load i32, ptr %fid.addr, align 4
  %cmp = icmp eq i32 %0, %1
  br i1 %cmp, label %land.rhs, label %land.end

land.rhs:                                         ; preds = %entry
  %2 = load i32, ptr %k.addr, align 4
  %m_kind = getelementptr inbounds %class.decl_info, ptr %this1, i32 0, i32 1
  %3 = load i32, ptr %m_kind, align 4
  %cmp2 = icmp eq i32 %2, %3
  br label %land.end

land.end:                                         ; preds = %land.rhs, %entry
  %4 = phi i1 [ false, %entry ], [ %cmp2, %land.rhs ]
  ret i1 %4
}

; Function Attrs: mustprogress uwtable
define linkonce_odr hidden noundef zeroext i1 @_ZNK4decl10is_decl_ofEii(ptr noundef nonnull align 8 dereferenceable(32) %this, i32 noundef %fid, i32 noundef %k) #5 comdat align 2 {
entry:
  %this.addr = alloca ptr, align 8
  %fid.addr = alloca i32, align 4
  %k.addr = alloca i32, align 4
  store ptr %this, ptr %this.addr, align 8
  store i32 %fid, ptr %fid.addr, align 4
  store i32 %k, ptr %k.addr, align 4
  %this1 = load ptr, ptr %this.addr, align 8
  %m_info = getelementptr inbounds %class.decl, ptr %this1, i32 0, i32 2
  %0 = load ptr, ptr %m_info, align 8
  %tobool = icmp ne ptr %0, null
  br i1 %tobool, label %land.rhs, label %land.end

land.rhs:                                         ; preds = %entry
  %m_info2 = getelementptr inbounds %class.decl, ptr %this1, i32 0, i32 2
  %1 = load ptr, ptr %m_info2, align 8
  %2 = load i32, ptr %fid.addr, align 4
  %3 = load i32, ptr %k.addr, align 4
  %call = call noundef zeroext i1 @_ZNK9decl_info10is_decl_ofEii(ptr noundef nonnull align 8 dereferenceable(17) %1, i32 noundef %2, i32 noundef %3)
  br label %land.end

land.end:                                         ; preds = %land.rhs, %entry
  %4 = phi i1 [ false, %entry ], [ %call, %land.rhs ]
  ret i1 %4
}

; Function Attrs: mustprogress uwtable
define linkonce_odr hidden noundef zeroext i1 @_ZNK3app9is_app_ofEii(ptr noundef nonnull align 8 dereferenceable(32) %this, i32 noundef %fid, i32 noundef %k) #5 comdat align 2 {
entry:
  %this.addr = alloca ptr, align 8
  %fid.addr = alloca i32, align 4
  %k.addr = alloca i32, align 4
  store ptr %this, ptr %this.addr, align 8
  store i32 %fid, ptr %fid.addr, align 4
  store i32 %k, ptr %k.addr, align 4
  %this1 = load ptr, ptr %this.addr, align 8
  %m_decl = getelementptr inbounds %class.app, ptr %this1, i32 0, i32 1
  %0 = load ptr, ptr %m_decl, align 8
  %1 = load i32, ptr %fid.addr, align 4
  %2 = load i32, ptr %k.addr, align 4
  %call = call noundef zeroext i1 @_ZNK4decl10is_decl_ofEii(ptr noundef nonnull align 8 dereferenceable(32) %0, i32 noundef %1, i32 noundef %2)
  ret i1 %call
}

; Function Attrs: mustprogress nounwind uwtable
define linkonce_odr hidden noundef i32 @_ZNK3smt6theory6get_idEv(ptr noundef nonnull align 8 dereferenceable(53) %this) #4 comdat align 2 {
entry:
  %this.addr = alloca ptr, align 8
  store ptr %this, ptr %this.addr, align 8
  %this1 = load ptr, ptr %this.addr, align 8
  %m_id = getelementptr inbounds %"class.smt::theory", ptr %this1, i32 0, i32 1
  %0 = load i32, ptr %m_id, align 8
  ret i32 %0
}

; Function Attrs: mustprogress uwtable
define linkonce_odr hidden noundef zeroext i1 @_ZNK3smt17theory_array_base8is_storeEPK3app(ptr noundef nonnull align 8 dereferenceable(249) %this, ptr noundef %n) #5 comdat align 2 {
entry:
  %this.addr = alloca ptr, align 8
  %n.addr = alloca ptr, align 8
  store ptr %this, ptr %this.addr, align 8
  store ptr %n, ptr %n.addr, align 8
  %this1 = load ptr, ptr %this.addr, align 8
  %0 = load ptr, ptr %n.addr, align 8
  %call = call noundef i32 @_ZNK3smt6theory6get_idEv(ptr noundef nonnull align 8 dereferenceable(53) %this1)
  %call2 = call noundef zeroext i1 @_ZNK3app9is_app_ofEii(ptr noundef nonnull align 8 dereferenceable(32) %0, i32 noundef %call, i32 noundef 0)
  ret i1 %call2
}

; Function Attrs: mustprogress uwtable
define linkonce_odr hidden noundef zeroext i1 @_ZNK3smt17theory_array_base6is_mapEPK3app(ptr noundef nonnull align 8 dereferenceable(249) %this, ptr noundef %n) #5 comdat align 2 {
entry:
  %this.addr = alloca ptr, align 8
  %n.addr = alloca ptr, align 8
  store ptr %this, ptr %this.addr, align 8
  store ptr %n, ptr %n.addr, align 8
  %this1 = load ptr, ptr %this.addr, align 8
  %0 = load ptr, ptr %n.addr, align 8
  %call = call noundef i32 @_ZNK3smt6theory6get_idEv(ptr noundef nonnull align 8 dereferenceable(53) %this1)
  %call2 = call noundef zeroext i1 @_ZNK3app9is_app_ofEii(ptr noundef nonnull align 8 dereferenceable(32) %0, i32 noundef %call, i32 noundef 5)
  ret i1 %call2
}

; Function Attrs: mustprogress uwtable
define linkonce_odr hidden noundef zeroext i1 @_ZNK3smt17theory_array_base9is_selectEPK3app(ptr noundef nonnull align 8 dereferenceable(249) %this, ptr noundef %n) #5 comdat align 2 {
entry:
  %this.addr = alloca ptr, align 8
  %n.addr = alloca ptr, align 8
  store ptr %this, ptr %this.addr, align 8
  store ptr %n, ptr %n.addr, align 8
  %this1 = load ptr, ptr %this.addr, align 8
  %0 = load ptr, ptr %n.addr, align 8
  %call = call noundef i32 @_ZNK3smt6theory6get_idEv(ptr noundef nonnull align 8 dereferenceable(53) %this1)
  %call2 = call noundef zeroext i1 @_ZNK3app9is_app_ofEii(ptr noundef nonnull align 8 dereferenceable(32) %0, i32 noundef %call, i32 noundef 1)
  ret i1 %call2
}

; Function Attrs: mustprogress nounwind uwtable
define linkonce_odr hidden noundef ptr @_ZNK3smt5enode8get_exprEv(ptr noundef nonnull align 8 dereferenceable(112) %this) #4 comdat align 2 {
entry:
  %this.addr = alloca ptr, align 8
  store ptr %this, ptr %this.addr, align 8
  %this1 = load ptr, ptr %this.addr, align 8
  %m_owner = getelementptr inbounds %"class.smt::enode", ptr %this1, i32 0, i32 0
  %0 = load ptr, ptr %m_owner, align 8
  ret ptr %0
}

; Function Attrs: mustprogress uwtable
define linkonce_odr hidden noundef zeroext i1 @_ZNK3smt17theory_array_base8is_storeEPKNS_5enodeE(ptr noundef nonnull align 8 dereferenceable(249) %this, ptr noundef %n) #5 comdat align 2 {
entry:
  %this.addr = alloca ptr, align 8
  %n.addr = alloca ptr, align 8
  store ptr %this, ptr %this.addr, align 8
  store ptr %n, ptr %n.addr, align 8
  %this1 = load ptr, ptr %this.addr, align 8
  %0 = load ptr, ptr %n.addr, align 8
  %call = call noundef ptr @_ZNK3smt5enode8get_exprEv(ptr noundef nonnull align 8 dereferenceable(112) %0)
  %call2 = call noundef zeroext i1 @_ZNK3smt17theory_array_base8is_storeEPK3app(ptr noundef nonnull align 8 dereferenceable(249) %this1, ptr noundef %call)
  ret i1 %call2
}

; Function Attrs: mustprogress uwtable
define linkonce_odr hidden noundef zeroext i1 @_ZNK3smt17theory_array_base6is_mapEPKNS_5enodeE(ptr noundef nonnull align 8 dereferenceable(249) %this, ptr noundef %n) #5 comdat align 2 {
entry:
  %this.addr = alloca ptr, align 8
  %n.addr = alloca ptr, align 8
  store ptr %this, ptr %this.addr, align 8
  store ptr %n, ptr %n.addr, align 8
  %this1 = load ptr, ptr %this.addr, align 8
  %0 = load ptr, ptr %n.addr, align 8
  %call = call noundef ptr @_ZNK3smt5enode8get_exprEv(ptr noundef nonnull align 8 dereferenceable(112) %0)
  %call2 = call noundef zeroext i1 @_ZNK3smt17theory_array_base6is_mapEPK3app(ptr noundef nonnull align 8 dereferenceable(249) %this1, ptr noundef %call)
  ret i1 %call2
}

; Function Attrs: mustprogress nounwind uwtable
define linkonce_odr hidden noundef ptr @_ZNK3smt5enode8get_rootEv(ptr noundef nonnull align 8 dereferenceable(112) %this) #4 comdat align 2 {
entry:
  %this.addr = alloca ptr, align 8
  store ptr %this, ptr %this.addr, align 8
  %this1 = load ptr, ptr %this.addr, align 8
  %m_root = getelementptr inbounds %"class.smt::enode", ptr %this1, i32 0, i32 1
  %0 = load ptr, ptr %m_root, align 8
  ret ptr %0
}

; Function Attrs: mustprogress nounwind uwtable
define linkonce_odr hidden noundef ptr @_ZNK3smt5enode7get_argEj(ptr noundef nonnull align 8 dereferenceable(112) %this, i32 noundef %idx) #4 comdat align 2 {
entry:
  %this.addr = alloca ptr, align 8
  %idx.addr = alloca i32, align 4
  store ptr %this, ptr %this.addr, align 8
  store i32 %idx, ptr %idx.addr, align 4
  %this1 = load ptr, ptr %this.addr, align 8
  %m_args = getelementptr inbounds %"class.smt::enode", ptr %this1, i32 0, i32 16
  %0 = load i32, ptr %idx.addr, align 4
  %idxprom = zext i32 %0 to i64
  %arrayidx = getelementptr inbounds [0 x ptr], ptr %m_args, i64 0, i64 %idxprom
  %1 = load ptr, ptr %arrayidx, align 8
  ret ptr %1
}

; Function Attrs: mustprogress uwtable
define linkonce_odr hidden noundef zeroext i1 @_ZNK3smt17theory_array_base9is_selectEPKNS_5enodeE(ptr noundef nonnull align 8 dereferenceable(249) %this, ptr noundef %n) #5 comdat align 2 {
entry:
  %this.addr = alloca ptr, align 8
  %n.addr = alloca ptr, align 8
  store ptr %this, ptr %this.addr, align 8
  store ptr %n, ptr %n.addr, align 8
  %this1 = load ptr, ptr %this.addr, align 8
  %0 = load ptr, ptr %n.addr, align 8
  %call = call noundef ptr @_ZNK3smt5enode8get_exprEv(ptr noundef nonnull align 8 dereferenceable(112) %0)
  %call2 = call noundef zeroext i1 @_ZNK3smt17theory_array_base9is_selectEPK3app(ptr noundef nonnull align 8 dereferenceable(249) %this1, ptr noundef %call)
  ret i1 %call2
}

; Function Attrs: mustprogress uwtable
define hidden noundef zeroext i1 @_ZNK3smt17theory_array_base13is_beta_redexEPNS_5enodeES2_(ptr noundef nonnull align 8 dereferenceable(249) %this, ptr noundef %p, ptr noundef %n) unnamed_addr #5 align 2 {
entry:
  %retval = alloca i1, align 1
  %this.addr = alloca ptr, align 8
  %p.addr = alloca ptr, align 8
  %n.addr = alloca ptr, align 8
  store ptr %this, ptr %this.addr, align 8
  store ptr %p, ptr %p.addr, align 8
  store ptr %n, ptr %n.addr, align 8
  %this1 = load ptr, ptr %this.addr, align 8
  %0 = load ptr, ptr %p.addr, align 8
  %call = call noundef zeroext i1 @_ZNK3smt17theory_array_base9is_selectEPKNS_5enodeE(ptr noundef nonnull align 8 dereferenceable(249) %this1, ptr noundef %0)
  br i1 %call, label %if.then, label %if.end

if.then:                                          ; preds = %entry
  %1 = load ptr, ptr %p.addr, align 8
  %call2 = call noundef ptr @_ZNK3smt5enode7get_argEj(ptr noundef nonnull align 8 dereferenceable(112) %1, i32 noundef 0)
  %call3 = call noundef ptr @_ZNK3smt5enode8get_rootEv(ptr noundef nonnull align 8 dereferenceable(112) %call2)
  %2 = load ptr, ptr %n.addr, align 8
  %call4 = call noundef ptr @_ZNK3smt5enode8get_rootEv(ptr noundef nonnull align 8 dereferenceable(112) %2)
  %cmp = icmp eq ptr %call3, %call4
  store i1 %cmp, ptr %retval, align 1
  br label %return

if.end:                                           ; preds = %entry
  %3 = load ptr, ptr %p.addr, align 8
  %call5 = call noundef zeroext i1 @_ZNK3smt17theory_array_base6is_mapEPKNS_5enodeE(ptr noundef nonnull align 8 dereferenceable(249) %this1, ptr noundef %3)
  br i1 %call5, label %if.then6, label %if.end7

if.then6:                                         ; preds = %if.end
  store i1 true, ptr %retval, align 1
  br label %return

if.end7:                                          ; preds = %if.end
  %4 = load ptr, ptr %p.addr, align 8
  %call8 = call noundef zeroext i1 @_ZNK3smt17theory_array_base8is_storeEPKNS_5enodeE(ptr noundef nonnull align 8 dereferenceable(249) %this1, ptr noundef %4)
  br i1 %call8, label %if.then9, label %if.end10

if.then9:                                         ; preds = %if.end7
  store i1 true, ptr %retval, align 1
  br label %return

if.end10:                                         ; preds = %if.end7
  store i1 false, ptr %retval, align 1
  br label %return

return:                                           ; preds = %if.end10, %if.then9, %if.then6, %if.then
  %5 = load i1, ptr %retval, align 1
  ret i1 %5
}