; Function Attrs: mustprogress nofree norecurse nosync nounwind willreturn memory(read, inaccessiblemem: none) uwtable
define hidden noundef zeroext i1 @_ZNK3smt17theory_array_base13is_beta_redexEPNS_5enodeES2_(ptr nocapture noundef nonnull readonly align 8 dereferenceable(249) %this, ptr nocapture noundef readonly %p, ptr nocapture noundef readonly %n) unnamed_addr #5 align 2 {
entry:
  %0 = load ptr, ptr %p, align 8
  %m_decl.i.i.i = getelementptr inbounds i8, ptr %0, i64 16
  %1 = load ptr, ptr %m_decl.i.i.i, align 8
  %m_info.i.i.i.i = getelementptr inbounds i8, ptr %1, i64 24
  %2 = load ptr, ptr %m_info.i.i.i.i, align 8
  %tobool.not.i.i.i.i = icmp eq ptr %2, null
  br i1 %tobool.not.i.i.i.i, label %return, label %_ZNK3smt17theory_array_base9is_selectEPKNS_5enodeE.exit

_ZNK3smt17theory_array_base9is_selectEPKNS_5enodeE.exit: ; preds = %entry
  %m_id.i.i.i = getelementptr inbounds i8, ptr %this, i64 8
  %3 = load i32, ptr %m_id.i.i.i, align 8
  %4 = load i32, ptr %2, align 8
  %cmp.i.i.i.i.i = icmp eq i32 %4, %3
  %m_kind.i.i.i.i.i = getelementptr inbounds i8, ptr %2, i64 4
  %5 = load i32, ptr %m_kind.i.i.i.i.i, align 4
  %cmp2.i.i.i.i.i = icmp eq i32 %5, 1
  %6 = select i1 %cmp.i.i.i.i.i, i1 %cmp2.i.i.i.i.i, i1 false
  br i1 %6, label %if.then, label %_ZNK3smt17theory_array_base6is_mapEPKNS_5enodeE.exit

if.then:                                          ; preds = %_ZNK3smt17theory_array_base9is_selectEPKNS_5enodeE.exit
  %m_args.i = getelementptr inbounds i8, ptr %p, i64 112
  %7 = load ptr, ptr %m_args.i, align 8
  %m_root.i = getelementptr inbounds i8, ptr %7, i64 8
  %8 = load ptr, ptr %m_root.i, align 8
  %m_root.i4 = getelementptr inbounds i8, ptr %n, i64 8
  %9 = load ptr, ptr %m_root.i4, align 8
  %cmp = icmp eq ptr %8, %9
  br label %return

_ZNK3smt17theory_array_base6is_mapEPKNS_5enodeE.exit: ; preds = %_ZNK3smt17theory_array_base9is_selectEPKNS_5enodeE.exit
  %cmp2.i.i.i.i.i12 = icmp eq i32 %5, 5
  %10 = select i1 %cmp.i.i.i.i.i, i1 %cmp2.i.i.i.i.i12, i1 false
  br i1 %10, label %return, label %land.rhs.i.i.i.i16

land.rhs.i.i.i.i16:                               ; preds = %_ZNK3smt17theory_array_base6is_mapEPKNS_5enodeE.exit
  %cmp2.i.i.i.i.i20 = icmp eq i32 %5, 0
  %11 = select i1 %cmp.i.i.i.i.i, i1 %cmp2.i.i.i.i.i20, i1 false
  br label %return

return:                                           ; preds = %entry, %land.rhs.i.i.i.i16, %_ZNK3smt17theory_array_base6is_mapEPKNS_5enodeE.exit, %if.then
  %retval.0 = phi i1 [ %cmp, %if.then ], [ true, %_ZNK3smt17theory_array_base6is_mapEPKNS_5enodeE.exit ], [ %11, %land.rhs.i.i.i.i16 ], [ false, %entry ]
  ret i1 %retval.0
}